target datalayout = "e-m:e-p270:32:32-p271:32:32-p272:64:64-i64:64-i128:128-f80:128-n8:16:32:64-S128"
target triple = "x86_64-pc-linux-gnu"

%struct.SDL_Renderer = type { ptr, ptr, ptr, ptr, ptr, ptr, ptr, ptr, ptr, ptr, ptr, ptr, ptr, ptr, ptr, ptr, ptr, ptr, ptr, ptr, ptr, ptr, ptr, ptr, ptr, ptr, ptr, ptr, ptr, ptr, i32, i8, ptr, i8, i8, i8, i64, i64, ptr, %struct.SDL_RenderViewState, %struct.SDL_FPoint, i32, i32, ptr, ptr, ptr, i32, float, float, float, float, %struct.SDL_FColor, i32, i32, i32, ptr, ptr, ptr, ptr, i32, %struct.SDL_FColor, float, %struct.SDL_Rect, %struct.SDL_Rect, i8, i8, i8, i8, ptr, i64, i64, i8, ptr, ptr, i32, ptr, i8, ptr, ptr }
%struct.SDL_RenderViewState = type { i32, i32, %struct.SDL_Rect, %struct.SDL_Rect, %struct.SDL_Rect, %struct.SDL_Rect, i8, %struct.SDL_FPoint, i32, i32, i32, %struct.SDL_FRect, %struct.SDL_FRect, %struct.SDL_FPoint, %struct.SDL_FPoint, %struct.SDL_FPoint }
%struct.SDL_FRect = type { float, float, float, float }
%struct.SDL_FPoint = type { float, float }
%struct.SDL_FColor = type { float, float, float, float }
%struct.SDL_Rect = type { i32, i32, i32, i32 }
%struct.GLES2_RenderData = type { ptr, i8, i8, i8, ptr, ptr, ptr, ptr, ptr, ptr, ptr, ptr, ptr, ptr, ptr, ptr, ptr, ptr, ptr, ptr, ptr, ptr, ptr, ptr, ptr, ptr, ptr, ptr, ptr, ptr, ptr, ptr, ptr, ptr, ptr, ptr, ptr, ptr, ptr, ptr, ptr, ptr, ptr, ptr, ptr, ptr, ptr, ptr, ptr, ptr, ptr, ptr, ptr, ptr, ptr, ptr, ptr, ptr, ptr, ptr, ptr, ptr, i32, [16 x i32], %struct.GLES2_ProgramCache, i8, i8, i8, i8, %struct.GLES2_DrawStateCache, i32 }
%struct.GLES2_ProgramCache = type { i32, ptr, ptr }
%struct.GLES2_DrawStateCache = type { %struct.SDL_Rect, i8, ptr, ptr, i32, i8, i8, i8, %struct.SDL_Rect, i8, i8, %struct.SDL_FColor, i8, i32, i32, ptr, ptr, [4 x [4 x float]] }
%struct.SDL_Texture = type { i32, i32, i32, i32, i32, float, float, i32, i32, i32, %struct.SDL_FColor, %struct.SDL_RenderViewState, ptr, ptr, ptr, ptr, i32, %struct.SDL_Rect, ptr, i32, i32, ptr, ptr, ptr }
%struct.GLES2_TextureData = type { i32, i8, i32, i32, i32, ptr, i32, i8, i8, i32, i32, i32, i32, [4 x float], i32, i32, i32, ptr }
%struct.GLES2_FBOList = type { i32, i32, i32, ptr }

@.str.81 = private unnamed_addr constant [32 x i8] c"glFramebufferTexture2D() failed\00", align 1

; Function Attrs: nounwind uwtable
define internal zeroext i1 @GLES2_SetRenderTarget(ptr noundef %0, ptr noundef %1) #0 {
  %3 = alloca i1, align 1
  %4 = alloca ptr, align 8
  %5 = alloca ptr, align 8
  %6 = alloca ptr, align 8
  %7 = alloca ptr, align 8
  %8 = alloca i32, align 4
  %9 = alloca i32, align 4
  store ptr %0, ptr %4, align 8
  store ptr %1, ptr %5, align 8
  call void @llvm.lifetime.start.p0(i64 8, ptr %6) #6
  %10 = load ptr, ptr %4, align 8
  %11 = getelementptr inbounds nuw %struct.SDL_Renderer, ptr %10, i32 0, i32 77
  %12 = load ptr, ptr %11, align 8
  store ptr %12, ptr %6, align 8
  call void @llvm.lifetime.start.p0(i64 8, ptr %7) #6
  store ptr null, ptr %7, align 8
  call void @llvm.lifetime.start.p0(i64 4, ptr %8) #6
  %13 = load ptr, ptr %6, align 8
  %14 = getelementptr inbounds nuw %struct.GLES2_RenderData, ptr %13, i32 0, i32 69
  %15 = getelementptr inbounds nuw %struct.GLES2_DrawStateCache, ptr %14, i32 0, i32 1
  store i8 1, ptr %15, align 8
  %16 = load ptr, ptr %5, align 8
  %17 = icmp ne ptr %16, null
  br i1 %17, label %25, label %18

18:                                               ; preds = %2
  %19 = load ptr, ptr %6, align 8
  %20 = getelementptr inbounds nuw %struct.GLES2_RenderData, ptr %19, i32 0, i32 50
  %21 = load ptr, ptr %20, align 8
  %22 = load ptr, ptr %6, align 8
  %23 = getelementptr inbounds nuw %struct.GLES2_RenderData, ptr %22, i32 0, i32 62
  %24 = load i32, ptr %23, align 8
  call void %21(i32 noundef 36160, i32 noundef %24)
  br label %55

25:                                               ; preds = %2
  %26 = load ptr, ptr %5, align 8
  %27 = getelementptr inbounds nuw %struct.SDL_Texture, ptr %26, i32 0, i32 21
  %28 = load ptr, ptr %27, align 8
  store ptr %28, ptr %7, align 8
  %29 = load ptr, ptr %6, align 8
  %30 = getelementptr inbounds nuw %struct.GLES2_RenderData, ptr %29, i32 0, i32 50
  %31 = load ptr, ptr %30, align 8
  %32 = load ptr, ptr %7, align 8
  %33 = getelementptr inbounds nuw %struct.GLES2_TextureData, ptr %32, i32 0, i32 17
  %34 = load ptr, ptr %33, align 8
  %35 = getelementptr inbounds nuw %struct.GLES2_FBOList, ptr %34, i32 0, i32 2
  %36 = load i32, ptr %35, align 8
  call void %31(i32 noundef 36160, i32 noundef %36)
  %37 = load ptr, ptr %6, align 8
  %38 = getelementptr inbounds nuw %struct.GLES2_RenderData, ptr %37, i32 0, i32 51
  %39 = load ptr, ptr %38, align 8
  %40 = load ptr, ptr %7, align 8
  %41 = getelementptr inbounds nuw %struct.GLES2_TextureData, ptr %40, i32 0, i32 2
  %42 = load i32, ptr %41, align 8
  %43 = load ptr, ptr %7, align 8
  %44 = getelementptr inbounds nuw %struct.GLES2_TextureData, ptr %43, i32 0, i32 0
  %45 = load i32, ptr %44, align 8
  call void %39(i32 noundef 36160, i32 noundef 36064, i32 noundef %42, i32 noundef %45, i32 noundef 0)
  %46 = load ptr, ptr %6, align 8
  %47 = getelementptr inbounds nuw %struct.GLES2_RenderData, ptr %46, i32 0, i32 52
  %48 = load ptr, ptr %47, align 8
  %49 = call i32 %48(i32 noundef 36160)
  store i32 %49, ptr %8, align 4
  %50 = load i32, ptr %8, align 4
  %51 = icmp ne i32 %50, 36053
  br i1 %51, label %52, label %54

52:                                               ; preds = %25
  %53 = call zeroext i1 (ptr, ...) @SDL_SetError_REAL(ptr noundef @.str.81)
  store i1 %53, ptr %3, align 1
  store i32 1, ptr %9, align 4
  br label %56

54:                                               ; preds = %25
  br label %55

55:                                               ; preds = %54, %18
  store i1 true, ptr %3, align 1
  store i32 1, ptr %9, align 4
  br label %56

56:                                               ; preds = %55, %52
  call void @llvm.lifetime.end.p0(i64 4, ptr %8) #6
  call void @llvm.lifetime.end.p0(i64 8, ptr %7) #6
  call void @llvm.lifetime.end.p0(i64 8, ptr %6) #6
  %57 = load i1, ptr %3, align 1
  ret i1 %57
}