; Function Attrs: nounwind uwtable
define internal zeroext i1 @GLES2_SetRenderTarget(ptr noundef readonly captures(none) %0, ptr noundef readonly captures(address_is_null) %1) #0 {
  %3 = getelementptr inbounds nuw i8, ptr %0, i64 696
  %4 = load ptr, ptr %3, align 8
  %5 = getelementptr inbounds nuw i8, ptr %4, i64 600
  store i8 1, ptr %5, align 8
  %.not = icmp eq ptr %1, null
  br i1 %.not, label %6, label %11

6:                                                ; preds = %2
  %7 = getelementptr inbounds nuw i8, ptr %4, i64 384
  %8 = load ptr, ptr %7, align 8
  %9 = getelementptr inbounds nuw i8, ptr %4, i64 480
  %10 = load i32, ptr %9, align 8
  tail call void %8(i32 noundef 36160, i32 noundef %10) #10
  br label %30

11:                                               ; preds = %2
  %12 = getelementptr inbounds nuw i8, ptr %1, i64 280
  %13 = load ptr, ptr %12, align 8
  %14 = getelementptr inbounds nuw i8, ptr %4, i64 384
  %15 = load ptr, ptr %14, align 8
  %16 = getelementptr inbounds nuw i8, ptr %13, i64 88
  %17 = load ptr, ptr %16, align 8
  %18 = getelementptr inbounds nuw i8, ptr %17, i64 8
  %19 = load i32, ptr %18, align 8
  tail call void %15(i32 noundef 36160, i32 noundef %19) #10
  %20 = getelementptr inbounds nuw i8, ptr %4, i64 392
  %21 = load ptr, ptr %20, align 8
  %22 = getelementptr inbounds nuw i8, ptr %13, i64 8
  %23 = load i32, ptr %22, align 8
  %24 = load i32, ptr %13, align 8
  tail call void %21(i32 noundef 36160, i32 noundef 36064, i32 noundef %23, i32 noundef %24, i32 noundef 0) #10
  %25 = getelementptr inbounds nuw i8, ptr %4, i64 400
  %26 = load ptr, ptr %25, align 8
  %27 = tail call i32 %26(i32 noundef 36160) #10
  %.not14 = icmp eq i32 %27, 36053
  br i1 %.not14, label %30, label %28

28:                                               ; preds = %11
  %29 = tail call zeroext i1 (ptr, ...) @SDL_SetError_REAL(ptr noundef nonnull @.str.81) #10
  br label %30

30:                                               ; preds = %6, %11, %28
  %.0 = phi i1 [ %29, %28 ], [ true, %11 ], [ true, %6 ]
  ret i1 %.0
}